target datalayout = "e-m:e-p270:32:32-p271:32:32-p272:64:64-i64:64-i128:128-f80:128-n8:16:32:64-S128"
target triple = "x86_64-pc-linux-gnu"

%struct.ItemPointerData = type { %struct.BlockIdData, i16 }
%struct.BlockIdData = type { i16, i16 }
%struct.nameData = type { [64 x i8] }
%struct.HeapTupleData = type { i32, %struct.ItemPointerData, i32, ptr }
%struct.catclist = type { i32, i32, %struct.dlist_node, [4 x i64], i32, i8, i8, i16, i32, ptr, [0 x ptr] }
%struct.dlist_node = type { ptr, ptr }
%struct.catctup = type { i32, i32, [4 x i64], %struct.dlist_node, i32, i8, i8, %struct.HeapTupleData, ptr, ptr }
%struct.FormData_pg_enum = type { i32, i32, float, %struct.nameData }
%struct.HeapTupleHeaderData = type { %union.anon.0, %struct.ItemPointerData, i16, i16, i8, [0 x i8] }
%union.anon.0 = type { %struct.HeapTupleFields }
%struct.HeapTupleFields = type { i32, i32, %union.anon.1 }
%union.anon.1 = type { i32 }

@.str = private unnamed_addr constant [24 x i8] c"invalid enum label \22%s\22\00", align 1
@.str.1 = private unnamed_addr constant [33 x i8] c"Labels must be %d bytes or less.\00", align 1
@.str.2 = private unnamed_addr constant [10 x i8] c"pg_enum.c\00", align 1
@.str.4 = private unnamed_addr constant [31 x i8] c"enum label \22%s\22 already exists\00", align 1
@.str.5 = private unnamed_addr constant [35 x i8] c"\22%s\22 is not an existing enum label\00", align 1
@__func__.RenameEnumLabel = private unnamed_addr constant [16 x i8] c"RenameEnumLabel\00", align 1

; Function Attrs: inlinehint nounwind uwtable
define internal ptr @GETSTRUCT(ptr noundef %0) #3 {
  %2 = alloca ptr, align 8
  store ptr %0, ptr %2, align 8
  %3 = load ptr, ptr %2, align 8
  %4 = getelementptr inbounds nuw %struct.HeapTupleData, ptr %3, i32 0, i32 3
  %5 = load ptr, ptr %4, align 8
  %6 = load ptr, ptr %2, align 8
  %7 = getelementptr inbounds nuw %struct.HeapTupleData, ptr %6, i32 0, i32 3
  %8 = load ptr, ptr %7, align 8
  %9 = getelementptr inbounds nuw %struct.HeapTupleHeaderData, ptr %8, i32 0, i32 4
  %10 = load i8, ptr %9, align 2
  %11 = zext i8 %10 to i32
  %12 = sext i32 %11 to i64
  %13 = getelementptr inbounds i8, ptr %5, i64 %12
  ret ptr %13
}

; Function Attrs: inlinehint nounwind uwtable
define internal i64 @ObjectIdGetDatum(i32 noundef %0) #3 {
  %2 = alloca i32, align 4
  store i32 %0, ptr %2, align 4
  %3 = load i32, ptr %2, align 4
  %4 = zext i32 %3 to i64
  ret i64 %4
}

; Function Attrs: nounwind uwtable
define dso_local void @RenameEnumLabel(i32 noundef %0, ptr noundef %1, ptr noundef %2) #0 {
  %4 = alloca i32, align 4
  %5 = alloca ptr, align 8
  %6 = alloca ptr, align 8
  %7 = alloca ptr, align 8
  %8 = alloca ptr, align 8
  %9 = alloca ptr, align 8
  %10 = alloca ptr, align 8
  %11 = alloca i32, align 4
  %12 = alloca ptr, align 8
  %13 = alloca i8, align 1
  %14 = alloca i32, align 4
  store i32 %0, ptr %4, align 4
  store ptr %1, ptr %5, align 8
  store ptr %2, ptr %6, align 8
  call void @llvm.lifetime.start.p0(i64 8, ptr %7) #7
  call void @llvm.lifetime.start.p0(i64 8, ptr %8) #7
  call void @llvm.lifetime.start.p0(i64 8, ptr %9) #7
  call void @llvm.lifetime.start.p0(i64 8, ptr %10) #7
  call void @llvm.lifetime.start.p0(i64 4, ptr %11) #7
  call void @llvm.lifetime.start.p0(i64 8, ptr %12) #7
  call void @llvm.lifetime.start.p0(i64 1, ptr %13) #7
  call void @llvm.lifetime.start.p0(i64 4, ptr %14) #7
  %15 = load ptr, ptr %6, align 8
  %16 = call i64 @strlen(ptr noundef %15) #8
  %17 = icmp ugt i64 %16, 63
  br i1 %17, label %18, label %32

18:                                               ; preds = %3
  br label %19

19:                                               ; preds = %18
  br i1 true, label %20, label %22

20:                                               ; preds = %19
  %21 = call zeroext i1 @errstart_cold(i32 noundef 21, ptr noundef null) #9
  br i1 %21, label %24, label %29

22:                                               ; preds = %19
  %23 = call zeroext i1 @errstart(i32 noundef 21, ptr noundef null)
  br i1 %23, label %24, label %29

24:                                               ; preds = %22, %20
  %25 = call i32 @errcode(i32 noundef 33579140)
  %26 = load ptr, ptr %6, align 8
  %27 = call i32 (ptr, ...) @errmsg(ptr noundef @.str, ptr noundef %26)
  %28 = call i32 (ptr, ...) @errdetail(ptr noundef @.str.1, i32 noundef 63)
  call void @errfinish(ptr noundef @.str.2, i32 noundef 626, ptr noundef @__func__.RenameEnumLabel)
  br label %29

29:                                               ; preds = %24, %22, %20
  unreachable

30:                                               ; No predecessors!
  br label %31

31:                                               ; preds = %30
  br label %32

32:                                               ; preds = %31, %3
  %33 = load i32, ptr %4, align 4
  call void @LockDatabaseObject(i32 noundef 1247, i32 noundef %33, i16 noundef zeroext 0, i32 noundef 7)
  %34 = call ptr @table_open(i32 noundef 3501, i32 noundef 3)
  store ptr %34, ptr %7, align 8
  %35 = load i32, ptr %4, align 4
  %36 = call i64 @ObjectIdGetDatum(i32 noundef %35)
  %37 = call ptr @SearchSysCacheList(i32 noundef 24, i32 noundef 1, i64 noundef %36, i64 noundef 0, i64 noundef 0)
  store ptr %37, ptr %10, align 8
  %38 = load ptr, ptr %10, align 8
  %39 = getelementptr inbounds nuw %struct.catclist, ptr %38, i32 0, i32 8
  %40 = load i32, ptr %39, align 8
  store i32 %40, ptr %11, align 4
  store ptr null, ptr %12, align 8
  store i8 0, ptr %13, align 1
  store i32 0, ptr %14, align 4
  br label %41

41:                                               ; preds = %74, %32
  %42 = load i32, ptr %14, align 4
  %43 = load i32, ptr %11, align 4
  %44 = icmp slt i32 %42, %43
  br i1 %44, label %45, label %77

45:                                               ; preds = %41
  %46 = load ptr, ptr %10, align 8
  %47 = getelementptr inbounds nuw %struct.catclist, ptr %46, i32 0, i32 10
  %48 = load i32, ptr %14, align 4
  %49 = sext i32 %48 to i64
  %50 = getelementptr inbounds [0 x ptr], ptr %47, i64 0, i64 %49
  %51 = load ptr, ptr %50, align 8
  %52 = getelementptr inbounds nuw %struct.catctup, ptr %51, i32 0, i32 7
  store ptr %52, ptr %8, align 8
  %53 = load ptr, ptr %8, align 8
  %54 = call ptr @GETSTRUCT(ptr noundef %53)
  store ptr %54, ptr %9, align 8
  %55 = load ptr, ptr %9, align 8
  %56 = getelementptr inbounds nuw %struct.FormData_pg_enum, ptr %55, i32 0, i32 3
  %57 = getelementptr inbounds nuw %struct.nameData, ptr %56, i32 0, i32 0
  %58 = getelementptr inbounds [64 x i8], ptr %57, i64 0, i64 0
  %59 = load ptr, ptr %5, align 8
  %60 = call i32 @strcmp(ptr noundef %58, ptr noundef %59) #8
  %61 = icmp eq i32 %60, 0
  br i1 %61, label %62, label %64

62:                                               ; preds = %45
  %63 = load ptr, ptr %8, align 8
  store ptr %63, ptr %12, align 8
  br label %64

64:                                               ; preds = %62, %45
  %65 = load ptr, ptr %9, align 8
  %66 = getelementptr inbounds nuw %struct.FormData_pg_enum, ptr %65, i32 0, i32 3
  %67 = getelementptr inbounds nuw %struct.nameData, ptr %66, i32 0, i32 0
  %68 = getelementptr inbounds [64 x i8], ptr %67, i64 0, i64 0
  %69 = load ptr, ptr %6, align 8
  %70 = call i32 @strcmp(ptr noundef %68, ptr noundef %69) #8
  %71 = icmp eq i32 %70, 0
  br i1 %71, label %72, label %73

72:                                               ; preds = %64
  store i8 1, ptr %13, align 1
  br label %73

73:                                               ; preds = %72, %64
  br label %74

74:                                               ; preds = %73
  %75 = load i32, ptr %14, align 4
  %76 = add i32 %75, 1
  store i32 %76, ptr %14, align 4
  br label %41, !llvm.loop !17

77:                                               ; preds = %41
  %78 = load ptr, ptr %12, align 8
  %79 = icmp ne ptr %78, null
  br i1 %79, label %93, label %80

80:                                               ; preds = %77
  br label %81

81:                                               ; preds = %80
  br i1 true, label %82, label %84

82:                                               ; preds = %81
  %83 = call zeroext i1 @errstart_cold(i32 noundef 21, ptr noundef null) #9
  br i1 %83, label %86, label %90

84:                                               ; preds = %81
  %85 = call zeroext i1 @errstart(i32 noundef 21, ptr noundef null)
  br i1 %85, label %86, label %90

86:                                               ; preds = %84, %82
  %87 = call i32 @errcode(i32 noundef 50856066)
  %88 = load ptr, ptr %5, align 8
  %89 = call i32 (ptr, ...) @errmsg(ptr noundef @.str.5, ptr noundef %88)
  call void @errfinish(ptr noundef @.str.2, i32 noundef 664, ptr noundef @__func__.RenameEnumLabel)
  br label %90

90:                                               ; preds = %86, %84, %82
  unreachable

91:                                               ; No predecessors!
  br label %92

92:                                               ; preds = %91
  br label %93

93:                                               ; preds = %92, %77
  %94 = load i8, ptr %13, align 1, !range !11, !noundef !12
  %95 = trunc i8 %94 to i1
  br i1 %95, label %96, label %109

96:                                               ; preds = %93
  br label %97

97:                                               ; preds = %96
  br i1 true, label %98, label %100

98:                                               ; preds = %97
  %99 = call zeroext i1 @errstart_cold(i32 noundef 21, ptr noundef null) #9
  br i1 %99, label %102, label %106

100:                                              ; preds = %97
  %101 = call zeroext i1 @errstart(i32 noundef 21, ptr noundef null)
  br i1 %101, label %102, label %106

102:                                              ; preds = %100, %98
  %103 = call i32 @errcode(i32 noundef 290948)
  %104 = load ptr, ptr %6, align 8
  %105 = call i32 (ptr, ...) @errmsg(ptr noundef @.str.4, ptr noundef %104)
  call void @errfinish(ptr noundef @.str.2, i32 noundef 669, ptr noundef @__func__.RenameEnumLabel)
  br label %106

106:                                              ; preds = %102, %100, %98
  unreachable

107:                                              ; No predecessors!
  br label %108

108:                                              ; preds = %107
  br label %109

109:                                              ; preds = %108, %93
  %110 = load ptr, ptr %12, align 8
  %111 = call ptr @heap_copytuple(ptr noundef %110)
  store ptr %111, ptr %8, align 8
  %112 = load ptr, ptr %8, align 8
  %113 = call ptr @GETSTRUCT(ptr noundef %112)
  store ptr %113, ptr %9, align 8
  %114 = load ptr, ptr %10, align 8
  call void @ReleaseCatCacheList(ptr noundef %114)
  %115 = load ptr, ptr %9, align 8
  %116 = getelementptr inbounds nuw %struct.FormData_pg_enum, ptr %115, i32 0, i32 3
  %117 = load ptr, ptr %6, align 8
  call void @namestrcpy(ptr noundef %116, ptr noundef %117)
  %118 = load ptr, ptr %7, align 8
  %119 = load ptr, ptr %8, align 8
  %120 = getelementptr inbounds nuw %struct.HeapTupleData, ptr %119, i32 0, i32 1
  %121 = load ptr, ptr %8, align 8
  call void @CatalogTupleUpdate(ptr noundef %118, ptr noundef %120, ptr noundef %121)
  %122 = load ptr, ptr %8, align 8
  call void @heap_freetuple(ptr noundef %122)
  %123 = load ptr, ptr %7, align 8
  call void @table_close(ptr noundef %123, i32 noundef 3)
  call void @llvm.lifetime.end.p0(i64 4, ptr %14) #7
  call void @llvm.lifetime.end.p0(i64 1, ptr %13) #7
  call void @llvm.lifetime.end.p0(i64 8, ptr %12) #7
  call void @llvm.lifetime.end.p0(i64 4, ptr %11) #7
  call void @llvm.lifetime.end.p0(i64 8, ptr %10) #7
  call void @llvm.lifetime.end.p0(i64 8, ptr %9) #7
  call void @llvm.lifetime.end.p0(i64 8, ptr %8) #7
  call void @llvm.lifetime.end.p0(i64 8, ptr %7) #7
  ret void
}