; Function Attrs: nounwind uwtable
define dso_local void @RenameEnumLabel(i32 noundef %0, ptr noundef %1, ptr noundef %2) local_unnamed_addr #0 {
  %4 = tail call i64 @strlen(ptr noundef nonnull dereferenceable(1) %2) #11
  %5 = icmp ugt i64 %4, 63
  br i1 %5, label %6, label %11

6:                                                ; preds = %3
  %7 = tail call zeroext i1 @errstart_cold(i32 noundef 21, ptr noundef null) #12
  tail call void @llvm.assume(i1 %7)
  %8 = tail call i32 @errcode(i32 noundef 33579140) #10
  %9 = tail call i32 (ptr, ...) @errmsg(ptr noundef nonnull @.str, ptr noundef nonnull %2) #10
  %10 = tail call i32 (ptr, ...) @errdetail(ptr noundef nonnull @.str.1, i32 noundef 63) #10
  tail call void @errfinish(ptr noundef nonnull @.str.2, i32 noundef 626, ptr noundef nonnull @__func__.RenameEnumLabel) #10
  unreachable

11:                                               ; preds = %3
  tail call void @LockDatabaseObject(i32 noundef 1247, i32 noundef %0, i16 noundef zeroext 0, i32 noundef 7) #10
  %12 = tail call ptr @table_open(i32 noundef 3501, i32 noundef 3) #10
  %13 = zext i32 %0 to i64
  %14 = tail call ptr @SearchSysCacheList(i32 noundef 24, i32 noundef 1, i64 noundef %13, i64 noundef 0, i64 noundef 0) #10
  %15 = getelementptr inbounds nuw i8, ptr %14, i64 64
  %16 = load i32, ptr %15, align 8
  %17 = icmp sgt i32 %16, 0
  br i1 %17, label %.lr.ph, label %._crit_edge.thread

.lr.ph:                                           ; preds = %11
  %18 = getelementptr inbounds nuw i8, ptr %14, i64 80
  %wide.trip.count = zext nneg i32 %16 to i64
  br label %19

19:                                               ; preds = %.lr.ph, %19
  %indvars.iv = phi i64 [ 0, %.lr.ph ], [ %indvars.iv.next, %19 ]
  %.02934 = phi i1 [ false, %.lr.ph ], [ %.1, %19 ]
  %.03033 = phi ptr [ null, %.lr.ph ], [ %spec.select, %19 ]
  %20 = getelementptr inbounds nuw [0 x ptr], ptr %18, i64 0, i64 %indvars.iv
  %21 = load ptr, ptr %20, align 8
  %22 = getelementptr inbounds nuw i8, ptr %21, i64 64
  %23 = getelementptr i8, ptr %21, i64 80
  %.val32 = load ptr, ptr %23, align 8
  %24 = getelementptr inbounds nuw i8, ptr %.val32, i64 22
  %25 = load i8, ptr %24, align 2
  %26 = zext i8 %25 to i64
  %27 = getelementptr inbounds nuw i8, ptr %.val32, i64 %26
  %28 = getelementptr inbounds nuw i8, ptr %27, i64 12
  %29 = tail call i32 @strcmp(ptr noundef nonnull dereferenceable(1) %28, ptr noundef nonnull dereferenceable(1) %1) #11
  %30 = icmp eq i32 %29, 0
  %spec.select = select i1 %30, ptr %22, ptr %.03033
  %31 = tail call i32 @strcmp(ptr noundef nonnull dereferenceable(1) %28, ptr noundef nonnull dereferenceable(1) %2) #11
  %32 = icmp eq i32 %31, 0
  %.1 = select i1 %32, i1 true, i1 %.02934
  %indvars.iv.next = add nuw nsw i64 %indvars.iv, 1
  %exitcond.not = icmp eq i64 %indvars.iv.next, %wide.trip.count
  br i1 %exitcond.not, label %._crit_edge, label %19, !llvm.loop !16

._crit_edge:                                      ; preds = %19
  %.not = icmp eq ptr %spec.select, null
  br i1 %.not, label %._crit_edge.thread, label %36

._crit_edge.thread:                               ; preds = %11, %._crit_edge
  %33 = tail call zeroext i1 @errstart_cold(i32 noundef 21, ptr noundef null) #12
  tail call void @llvm.assume(i1 %33)
  %34 = tail call i32 @errcode(i32 noundef 50856066) #10
  %35 = tail call i32 (ptr, ...) @errmsg(ptr noundef nonnull @.str.5, ptr noundef %1) #10
  tail call void @errfinish(ptr noundef nonnull @.str.2, i32 noundef 664, ptr noundef nonnull @__func__.RenameEnumLabel) #10
  unreachable

36:                                               ; preds = %._crit_edge
  br i1 %.1, label %37, label %41

37:                                               ; preds = %36
  %38 = tail call zeroext i1 @errstart_cold(i32 noundef 21, ptr noundef null) #12
  tail call void @llvm.assume(i1 %38)
  %39 = tail call i32 @errcode(i32 noundef 290948) #10
  %40 = tail call i32 (ptr, ...) @errmsg(ptr noundef nonnull @.str.4, ptr noundef nonnull %2) #10
  tail call void @errfinish(ptr noundef nonnull @.str.2, i32 noundef 669, ptr noundef nonnull @__func__.RenameEnumLabel) #10
  unreachable

41:                                               ; preds = %36
  %42 = tail call ptr @heap_copytuple(ptr noundef nonnull %spec.select) #10
  %43 = getelementptr i8, ptr %42, i64 16
  %.val = load ptr, ptr %43, align 8
  %44 = getelementptr inbounds nuw i8, ptr %.val, i64 22
  %45 = load i8, ptr %44, align 2
  %46 = zext i8 %45 to i64
  %47 = getelementptr inbounds nuw i8, ptr %.val, i64 %46
  tail call void @ReleaseCatCacheList(ptr noundef nonnull %14) #10
  %48 = getelementptr inbounds nuw i8, ptr %47, i64 12
  tail call void @namestrcpy(ptr noundef nonnull %48, ptr noundef nonnull %2) #10
  %49 = getelementptr inbounds nuw i8, ptr %42, i64 4
  tail call void @CatalogTupleUpdate(ptr noundef %12, ptr noundef nonnull %49, ptr noundef %42) #10
  tail call void @heap_freetuple(ptr noundef %42) #10
  tail call void @table_close(ptr noundef %12, i32 noundef 3) #10
  ret void
}